; Function Attrs: nounwind uwtable
define dso_local noalias noundef ptr @xmallocz_gently(i64 noundef %0) local_unnamed_addr #0 {
  %2 = icmp eq i64 %0, -1
  br i1 %2, label %3, label %5

3:                                                ; preds = %1
  %4 = tail call i32 (ptr, ...) @error(ptr noundef nonnull @.str.30) #20
  br label %do_xmallocz.exit

5:                                                ; preds = %1
  %6 = add nuw i64 %0, 1
  %7 = load i64, ptr @memory_limit_check.limit, align 8, !tbaa !4
  %.not.i.i.i = icmp eq i64 %7, 0
  br i1 %.not.i.i.i, label %8, label %10

8:                                                ; preds = %5
  %9 = tail call i64 @git_env_ulong(ptr noundef nonnull @.str.31, i64 noundef 0) #20
  %.not7.i.i.i = icmp eq i64 %9, 0
  %spec.store.select.i.i.i = select i1 %.not7.i.i.i, i64 -1, i64 %9
  store i64 %spec.store.select.i.i.i, ptr @memory_limit_check.limit, align 8
  br label %10

10:                                               ; preds = %8, %5
  %11 = phi i64 [ %spec.store.select.i.i.i, %8 ], [ %7, %5 ]
  %.not.i = icmp ult i64 %0, %11
  br i1 %.not.i, label %14, label %12

12:                                               ; preds = %10
  %13 = tail call i32 (ptr, ...) @error(ptr noundef nonnull @.str.32, i64 noundef %6, i64 noundef %11) #20
  br label %do_xmallocz.exit

14:                                               ; preds = %10
  %15 = tail call noalias ptr @malloc(i64 noundef %6) #22
  %.not12.i.i = icmp eq ptr %15, null
  br i1 %.not12.i.i, label %16, label %do_xmalloc.exit.i

16:                                               ; preds = %14
  %17 = tail call i32 (ptr, ...) @error(ptr noundef nonnull @.str.29, i64 noundef %6) #20
  br label %do_xmallocz.exit

do_xmalloc.exit.i:                                ; preds = %14
  %18 = getelementptr inbounds nuw i8, ptr %15, i64 %0
  store i8 0, ptr %18, align 1, !tbaa !8
  br label %do_xmallocz.exit

do_xmallocz.exit:                                 ; preds = %3, %12, %16, %do_xmalloc.exit.i
  %.0.i = phi ptr [ null, %3 ], [ %15, %do_xmalloc.exit.i ], [ null, %16 ], [ null, %12 ]
  ret ptr %.0.i
}